; Function Attrs: nounwind uwtable
define void @stbtt_MakeCodepointBitmapSubpixelPrefilter(ptr noundef readonly captures(none) %0, ptr noundef %1, i32 noundef %2, i32 noundef %3, i32 noundef %4, float noundef %5, float noundef %6, float noundef %7, float noundef %8, i32 noundef %9, i32 noundef %10, ptr noundef writeonly captures(none) initializes((0, 4)) %11, ptr noundef writeonly captures(none) initializes((0, 4)) %12, i32 noundef %13) local_unnamed_addr #11 {
  %15 = tail call i32 @stbtt_FindGlyphIndex(ptr noundef %0, i32 noundef %13)
  %.neg31.i = add i32 %2, 1
  %16 = sub i32 %.neg31.i, %9
  %.neg33.i = add i32 %3, 1
  %17 = sub i32 %.neg33.i, %10
  tail call void @stbtt_MakeGlyphBitmapSubpixel(ptr noundef readonly %0, ptr noundef %1, i32 noundef %16, i32 noundef %17, i32 noundef %4, float noundef %5, float noundef %6, float noundef %7, float noundef %8, i32 noundef %15)
  %18 = icmp sgt i32 %9, 1
  br i1 %18, label %19, label %20

19:                                               ; preds = %14
  tail call void @stbtt__h_prefilter(ptr noundef %1, i32 noundef %2, i32 noundef %3, i32 noundef %4, i32 noundef %9)
  br label %20

20:                                               ; preds = %19, %14
  %21 = icmp sgt i32 %10, 1
  br i1 %21, label %22, label %23

22:                                               ; preds = %20
  tail call void @stbtt__v_prefilter(ptr noundef %1, i32 noundef %2, i32 noundef %3, i32 noundef %4, i32 noundef %10)
  br label %23

23:                                               ; preds = %22, %20
  %.not.i.i = icmp eq i32 %9, 0
  br i1 %.not.i.i, label %stbtt__oversample_shift.exit.i, label %24

24:                                               ; preds = %23
  %25 = sub nsw i32 1, %9
  %26 = sitofp i32 %25 to float
  %27 = sitofp i32 %9 to float
  %28 = fmul float %27, 2.000000e+00
  %29 = fdiv float %26, %28
  br label %stbtt__oversample_shift.exit.i

stbtt__oversample_shift.exit.i:                   ; preds = %24, %23
  %.0.i.i = phi float [ %29, %24 ], [ 0.000000e+00, %23 ]
  store float %.0.i.i, ptr %11, align 4, !tbaa !71
  %.not.i28.i = icmp eq i32 %10, 0
  br i1 %.not.i28.i, label %stbtt_MakeGlyphBitmapSubpixelPrefilter.exit, label %30

30:                                               ; preds = %stbtt__oversample_shift.exit.i
  %31 = sub nsw i32 1, %10
  %32 = sitofp i32 %31 to float
  %33 = sitofp i32 %10 to float
  %34 = fmul float %33, 2.000000e+00
  %35 = fdiv float %32, %34
  br label %stbtt_MakeGlyphBitmapSubpixelPrefilter.exit

stbtt_MakeGlyphBitmapSubpixelPrefilter.exit:      ; preds = %stbtt__oversample_shift.exit.i, %30
  %.0.i29.i = phi float [ %35, %30 ], [ 0.000000e+00, %stbtt__oversample_shift.exit.i ]
  store float %.0.i29.i, ptr %12, align 4, !tbaa !71
  ret void
}